target datalayout = "e-m:e-p270:32:32-p271:32:32-p272:64:64-i64:64-i128:128-f80:128-n8:16:32:64-S128"
target triple = "x86_64-pc-linux-gnu"

%struct.b64_struct = type { i32, i32, i32, i32, i32, i32, i32, ptr, [1502 x i8], [1024 x i8] }

@.str.3 = private unnamed_addr constant [32 x i8] c"../openssl/crypto/evp/bio_b64.c\00", align 1

; Function Attrs: nounwind uwtable
define internal i32 @b64_new(ptr noundef %0) #0 {
  %2 = alloca i32, align 4
  %3 = alloca ptr, align 8
  %4 = alloca ptr, align 8
  %5 = alloca i32, align 4
  store ptr %0, ptr %3, align 8, !tbaa !3
  call void @llvm.lifetime.start.p0(i64 8, ptr %4) #6
  %6 = call noalias ptr @CRYPTO_zalloc(i64 noundef 2568, ptr noundef @.str.3, i32 noundef 70)
  store ptr %6, ptr %4, align 8, !tbaa !12
  %7 = icmp eq ptr %6, null
  br i1 %7, label %8, label %9

8:                                                ; preds = %1
  store i32 0, ptr %2, align 4
  store i32 1, ptr %5, align 4
  br label %27

9:                                                ; preds = %1
  %10 = load ptr, ptr %4, align 8, !tbaa !12
  %11 = getelementptr inbounds nuw %struct.b64_struct, ptr %10, i32 0, i32 6
  store i32 1, ptr %11, align 8, !tbaa !25
  %12 = load ptr, ptr %4, align 8, !tbaa !12
  %13 = getelementptr inbounds nuw %struct.b64_struct, ptr %12, i32 0, i32 5
  store i32 1, ptr %13, align 4, !tbaa !26
  %14 = call ptr @EVP_ENCODE_CTX_new()
  %15 = load ptr, ptr %4, align 8, !tbaa !12
  %16 = getelementptr inbounds nuw %struct.b64_struct, ptr %15, i32 0, i32 7
  store ptr %14, ptr %16, align 8, !tbaa !20
  %17 = load ptr, ptr %4, align 8, !tbaa !12
  %18 = getelementptr inbounds nuw %struct.b64_struct, ptr %17, i32 0, i32 7
  %19 = load ptr, ptr %18, align 8, !tbaa !20
  %20 = icmp eq ptr %19, null
  br i1 %20, label %21, label %23

21:                                               ; preds = %9
  %22 = load ptr, ptr %4, align 8, !tbaa !12
  call void @CRYPTO_free(ptr noundef %22, ptr noundef @.str.3, i32 noundef 77)
  store i32 0, ptr %2, align 4
  store i32 1, ptr %5, align 4
  br label %27

23:                                               ; preds = %9
  %24 = load ptr, ptr %3, align 8, !tbaa !3
  %25 = load ptr, ptr %4, align 8, !tbaa !12
  call void @BIO_set_data(ptr noundef %24, ptr noundef %25)
  %26 = load ptr, ptr %3, align 8, !tbaa !3
  call void @BIO_set_init(ptr noundef %26, i32 noundef 1)
  store i32 1, ptr %2, align 4
  store i32 1, ptr %5, align 4
  br label %27

27:                                               ; preds = %23, %21, %8
  call void @llvm.lifetime.end.p0(i64 8, ptr %4) #6
  %28 = load i32, ptr %2, align 4
  ret i32 %28
}