; Function Attrs: nounwind uwtable
define internal range(i32 0, 2) i32 @b64_new(ptr noundef %0) #2 {
  %2 = tail call noalias ptr @CRYPTO_zalloc(i64 noundef 2568, ptr noundef nonnull @.str.3, i32 noundef 70) #8
  %3 = icmp eq ptr %2, null
  br i1 %3, label %12, label %4

4:                                                ; preds = %1
  %5 = getelementptr inbounds nuw i8, ptr %2, i64 24
  store i32 1, ptr %5, align 8, !tbaa !18
  %6 = getelementptr inbounds nuw i8, ptr %2, i64 20
  store i32 1, ptr %6, align 4, !tbaa !19
  %7 = tail call ptr @EVP_ENCODE_CTX_new() #8
  %8 = getelementptr inbounds nuw i8, ptr %2, i64 32
  store ptr %7, ptr %8, align 8, !tbaa !13
  %9 = icmp eq ptr %7, null
  br i1 %9, label %10, label %11

10:                                               ; preds = %4
  tail call void @CRYPTO_free(ptr noundef nonnull %2, ptr noundef nonnull @.str.3, i32 noundef 77) #8
  br label %12

11:                                               ; preds = %4
  tail call void @BIO_set_data(ptr noundef %0, ptr noundef nonnull %2) #8
  tail call void @BIO_set_init(ptr noundef %0, i32 noundef 1) #8
  br label %12

12:                                               ; preds = %1, %11, %10
  %.0 = phi i32 [ 0, %10 ], [ 1, %11 ], [ 0, %1 ]
  ret i32 %.0
}